target datalayout = "e-m:e-p270:32:32-p271:32:32-p272:64:64-i64:64-i128:128-f80:128-n8:16:32:64-S128"
target triple = "x86_64-pc-linux-gnu"

%class.Compile = type <{ %class.Phase, i32, %class.Options, [4 x i8], ptr, i32, [4 x i8], ptr, ptr, ptr, ptr, ptr, i32, i32, i32, [4 x i8], i64, i8, i8, [2 x i8], i32, i8, i8, i8, i8, i8, i8, i8, i8, i8, [3 x i8], i32, i8, [3 x i8], [30 x i32], i8, [3 x i8], i32, i8, i8, i8, i8, i8, i8, i8, i8, i8, i8, i8, i8, i8, [3 x i8], i32, i32, [4 x i8], %class.Arena, ptr, ptr, ptr, ptr, %class.CHeapStringHolder, ptr, %class.GrowableArray, %class.GrowableArray.0, %class.GrowableArray.3, %class.GrowableArray.0, %class.GrowableArray.0, %class.GrowableArray.0, %class.GrowableArray.6, %class.GrowableArray.9, ptr, i32, i32, %class.VectorSet, %class.Arena, %class.Arena, ptr, ptr, ptr, ptr, ptr, ptr, ptr, ptr, ptr, %class.Arena, ptr, ptr, %class.CloneMap, i64, ptr, ptr, ptr, i32, i32, [64 x %"struct.Compile::AliasCacheEntry"], ptr, ptr, ptr, ptr, %class.GrowableArray, %class.GrowableArray, %class.GrowableArray, %class.GrowableArray, i32, i32, i8, [7 x i8], ptr, ptr, i32, [4 x i8], ptr, ptr, ptr, i32, i32, ptr, ptr, %class.RegMask, ptr, ptr, i32, [4 x i8], ptr, %class.TimeInstant, i32, [4 x i8] }>
%class.Phase = type { i32, ptr }
%class.Options = type { i8, i8, i8, i8, i8, i8, i8, i8 }
%class.CHeapStringHolder = type { ptr }
%class.GrowableArray.3 = type { %class.GrowableArrayWithAllocator.4, %class.GrowableArrayMetadata }
%class.GrowableArrayWithAllocator.4 = type { %class.GrowableArrayView.5 }
%class.GrowableArrayView.5 = type { %class.GrowableArrayBase, ptr }
%class.GrowableArrayBase = type { i32, i32 }
%class.GrowableArrayMetadata = type { i64 }
%class.GrowableArray.0 = type { %class.GrowableArrayWithAllocator.1, %class.GrowableArrayMetadata }
%class.GrowableArrayWithAllocator.1 = type { %class.GrowableArrayView.2 }
%class.GrowableArrayView.2 = type { %class.GrowableArrayBase, ptr }
%class.GrowableArray.6 = type { %class.GrowableArrayWithAllocator.7, %class.GrowableArrayMetadata }
%class.GrowableArrayWithAllocator.7 = type { %class.GrowableArrayView.8 }
%class.GrowableArrayView.8 = type { %class.GrowableArrayBase, ptr }
%class.GrowableArray.9 = type { %class.GrowableArrayWithAllocator.10, %class.GrowableArrayMetadata }
%class.GrowableArrayWithAllocator.10 = type { %class.GrowableArrayView.11 }
%class.GrowableArrayView.11 = type { %class.GrowableArrayBase, ptr }
%class.VectorSet = type { i32, ptr, i32, ptr }
%class.Arena = type { i8, i8, i64, ptr, ptr, ptr, ptr }
%class.CloneMap = type <{ i8, [7 x i8], ptr, i32, [4 x i8] }>
%"struct.Compile::AliasCacheEntry" = type { ptr, i32 }
%class.GrowableArray = type { %class.GrowableArrayWithAllocator, %class.GrowableArrayMetadata }
%class.GrowableArrayWithAllocator = type { %class.GrowableArrayView }
%class.GrowableArrayView = type { %class.GrowableArrayBase, ptr }
%class.RegMask = type { %union.anon, i32, i32 }
%union.anon = type { [11 x i64] }
%class.TimeInstant = type { %class.CompositeCounterRepresentation }
%class.CompositeCounterRepresentation = type { %class.Representation }
%class.Representation = type { %class.PairRep }
%class.PairRep = type { i64, i64 }
%class.UnstableIfTrap = type { ptr, i8, i32 }

; Function Attrs: mustprogress nounwind uwtable
define linkonce_odr hidden void @_ZN17GrowableArrayViewIP14UnstableIfTrapE9delete_atEi(ptr noundef nonnull align 8 dereferenceable(16) %0, i32 noundef %1) #1 comdat align 2 {
  %3 = alloca ptr, align 8
  %4 = alloca i32, align 4
  store ptr %0, ptr %3, align 8
  store i32 %1, ptr %4, align 4
  %5 = load ptr, ptr %3, align 8
  %6 = load i32, ptr %4, align 4
  %7 = getelementptr inbounds %class.GrowableArrayBase, ptr %5, i32 0, i32 0
  %8 = load i32, ptr %7, align 8
  %9 = add nsw i32 %8, -1
  store i32 %9, ptr %7, align 8
  %10 = icmp slt i32 %6, %9
  br i1 %10, label %11, label %24

11:                                               ; preds = %2
  %12 = getelementptr inbounds %class.GrowableArrayView.8, ptr %5, i32 0, i32 1
  %13 = load ptr, ptr %12, align 8
  %14 = getelementptr inbounds %class.GrowableArrayBase, ptr %5, i32 0, i32 0
  %15 = load i32, ptr %14, align 8
  %16 = sext i32 %15 to i64
  %17 = getelementptr inbounds ptr, ptr %13, i64 %16
  %18 = load ptr, ptr %17, align 8
  %19 = getelementptr inbounds %class.GrowableArrayView.8, ptr %5, i32 0, i32 1
  %20 = load ptr, ptr %19, align 8
  %21 = load i32, ptr %4, align 4
  %22 = sext i32 %21 to i64
  %23 = getelementptr inbounds ptr, ptr %20, i64 %22
  store ptr %18, ptr %23, align 8
  br label %24

24:                                               ; preds = %11, %2
  ret void
}

; Function Attrs: mustprogress nounwind uwtable
define linkonce_odr hidden noundef zeroext i1 @_ZNK14UnstableIfTrap8modifiedEv(ptr noundef nonnull align 8 dereferenceable(16) %0) #1 comdat align 2 {
  %2 = alloca ptr, align 8
  store ptr %0, ptr %2, align 8
  %3 = load ptr, ptr %2, align 8
  %4 = getelementptr inbounds %class.UnstableIfTrap, ptr %3, i32 0, i32 1
  %5 = load i8, ptr %4, align 8
  %6 = trunc i8 %5 to i1
  ret i1 %6
}

; Function Attrs: mustprogress nounwind uwtable
define linkonce_odr hidden noundef ptr @_ZNK14UnstableIfTrap13uncommon_trapEv(ptr noundef nonnull align 8 dereferenceable(16) %0) #1 comdat align 2 {
  %2 = alloca ptr, align 8
  store ptr %0, ptr %2, align 8
  %3 = load ptr, ptr %2, align 8
  %4 = getelementptr inbounds %class.UnstableIfTrap, ptr %3, i32 0, i32 0
  %5 = load ptr, ptr %4, align 8
  ret ptr %5
}

; Function Attrs: mustprogress nounwind uwtable
define linkonce_odr hidden noundef nonnull align 8 dereferenceable(8) ptr @_ZN17GrowableArrayViewIP14UnstableIfTrapE2atEi(ptr noundef nonnull align 8 dereferenceable(16) %0, i32 noundef %1) #1 comdat align 2 {
  %3 = alloca ptr, align 8
  %4 = alloca i32, align 4
  store ptr %0, ptr %3, align 8
  store i32 %1, ptr %4, align 4
  %5 = load ptr, ptr %3, align 8
  %6 = getelementptr inbounds %class.GrowableArrayView.8, ptr %5, i32 0, i32 1
  %7 = load ptr, ptr %6, align 8
  %8 = load i32, ptr %4, align 4
  %9 = sext i32 %8 to i64
  %10 = getelementptr inbounds ptr, ptr %7, i64 %9
  ret ptr %10
}

; Function Attrs: mustprogress nounwind uwtable
define linkonce_odr hidden noundef i32 @_ZNK17GrowableArrayBase6lengthEv(ptr noundef nonnull align 4 dereferenceable(8) %0) #1 comdat align 2 {
  %2 = alloca ptr, align 8
  store ptr %0, ptr %2, align 8
  %3 = load ptr, ptr %2, align 8
  %4 = getelementptr inbounds %class.GrowableArrayBase, ptr %3, i32 0, i32 0
  %5 = load i32, ptr %4, align 4
  ret i32 %5
}

; Function Attrs: mustprogress nounwind uwtable
define hidden noundef zeroext i1 @_ZN7Compile23remove_unstable_if_trapEP18CallStaticJavaNodeb(ptr noundef nonnull align 8 dereferenceable(2316) %0, ptr noundef %1, i1 noundef zeroext %2) #1 align 2 {
  %4 = alloca i1, align 1
  %5 = alloca ptr, align 8
  %6 = alloca ptr, align 8
  %7 = alloca i8, align 1
  %8 = alloca i32, align 4
  %9 = alloca ptr, align 8
  store ptr %0, ptr %5, align 8
  store ptr %1, ptr %6, align 8
  %10 = zext i1 %2 to i8
  store i8 %10, ptr %7, align 1
  %11 = load ptr, ptr %5, align 8
  store i32 0, ptr %8, align 4
  br label %12

12:                                               ; preds = %37, %3
  %13 = load i32, ptr %8, align 4
  %14 = getelementptr inbounds %class.Compile, ptr %11, i32 0, i32 68
  %15 = call noundef i32 @_ZNK17GrowableArrayBase6lengthEv(ptr noundef nonnull align 4 dereferenceable(8) %14)
  %16 = icmp slt i32 %13, %15
  br i1 %16, label %17, label %40

17:                                               ; preds = %12
  %18 = getelementptr inbounds %class.Compile, ptr %11, i32 0, i32 68
  %19 = load i32, ptr %8, align 4
  %20 = call noundef nonnull align 8 dereferenceable(8) ptr @_ZN17GrowableArrayViewIP14UnstableIfTrapE2atEi(ptr noundef nonnull align 8 dereferenceable(16) %18, i32 noundef %19)
  %21 = load ptr, ptr %20, align 8
  store ptr %21, ptr %9, align 8
  %22 = load ptr, ptr %9, align 8
  %23 = call noundef ptr @_ZNK14UnstableIfTrap13uncommon_trapEv(ptr noundef nonnull align 8 dereferenceable(16) %22)
  %24 = load ptr, ptr %6, align 8
  %25 = icmp eq ptr %23, %24
  br i1 %25, label %26, label %36

26:                                               ; preds = %17
  %27 = load i8, ptr %7, align 1
  %28 = trunc i8 %27 to i1
  br i1 %28, label %29, label %33

29:                                               ; preds = %26
  %30 = load ptr, ptr %9, align 8
  %31 = call noundef zeroext i1 @_ZNK14UnstableIfTrap8modifiedEv(ptr noundef nonnull align 8 dereferenceable(16) %30)
  br i1 %31, label %32, label %33

32:                                               ; preds = %29
  store i1 false, ptr %4, align 1
  br label %41

33:                                               ; preds = %29, %26
  %34 = getelementptr inbounds %class.Compile, ptr %11, i32 0, i32 68
  %35 = load i32, ptr %8, align 4
  call void @_ZN17GrowableArrayViewIP14UnstableIfTrapE9delete_atEi(ptr noundef nonnull align 8 dereferenceable(16) %34, i32 noundef %35)
  br label %40

36:                                               ; preds = %17
  br label %37

37:                                               ; preds = %36
  %38 = load i32, ptr %8, align 4
  %39 = add nsw i32 %38, 1
  store i32 %39, ptr %8, align 4
  br label %12, !llvm.loop !17

40:                                               ; preds = %33, %12
  store i1 true, ptr %4, align 1
  br label %41

41:                                               ; preds = %40, %32
  %42 = load i1, ptr %4, align 1
  ret i1 %42
}