; Function Attrs: mustprogress nofree norecurse nosync nounwind memory(readwrite, inaccessiblemem: none) uwtable
define hidden noundef zeroext i1 @_ZN7Compile23remove_unstable_if_trapEP18CallStaticJavaNodeb(ptr nocapture noundef nonnull align 8 dereferenceable(2316) %0, ptr noundef readnone %1, i1 noundef zeroext %2) local_unnamed_addr #2 align 2 {
  %4 = getelementptr inbounds i8, ptr %0, i64 536
  %5 = load i32, ptr %4, align 8
  %6 = icmp sgt i32 %5, 0
  br i1 %6, label %.lr.ph, label %_ZN17GrowableArrayViewIP14UnstableIfTrapE9delete_atEi.exit

.lr.ph:                                           ; preds = %3
  %7 = getelementptr inbounds i8, ptr %0, i64 544
  %8 = load ptr, ptr %7, align 8
  %wide.trip.count = zext nneg i32 %5 to i64
  br label %9

9:                                                ; preds = %.lr.ph, %28
  %indvars.iv = phi i64 [ 0, %.lr.ph ], [ %indvars.iv.next, %28 ]
  %10 = getelementptr inbounds ptr, ptr %8, i64 %indvars.iv
  %11 = load ptr, ptr %10, align 8
  %12 = load ptr, ptr %11, align 8
  %13 = icmp eq ptr %12, %1
  br i1 %13, label %14, label %28

14:                                               ; preds = %9
  %15 = getelementptr inbounds ptr, ptr %8, i64 %indvars.iv
  %16 = trunc nuw nsw i64 %indvars.iv to i32
  br i1 %2, label %17, label %21

17:                                               ; preds = %14
  %18 = getelementptr inbounds i8, ptr %11, i64 8
  %19 = load i8, ptr %18, align 8
  %20 = trunc i8 %19 to i1
  br i1 %20, label %_ZN17GrowableArrayViewIP14UnstableIfTrapE9delete_atEi.exit, label %21

21:                                               ; preds = %17, %14
  %22 = add nsw i32 %5, -1
  store i32 %22, ptr %4, align 8
  %23 = icmp sgt i32 %22, %16
  br i1 %23, label %24, label %_ZN17GrowableArrayViewIP14UnstableIfTrapE9delete_atEi.exit

24:                                               ; preds = %21
  %25 = sext i32 %22 to i64
  %26 = getelementptr inbounds ptr, ptr %8, i64 %25
  %27 = load ptr, ptr %26, align 8
  store ptr %27, ptr %15, align 8
  br label %_ZN17GrowableArrayViewIP14UnstableIfTrapE9delete_atEi.exit

28:                                               ; preds = %9
  %indvars.iv.next = add nuw nsw i64 %indvars.iv, 1
  %exitcond.not = icmp eq i64 %indvars.iv.next, %wide.trip.count
  br i1 %exitcond.not, label %_ZN17GrowableArrayViewIP14UnstableIfTrapE9delete_atEi.exit, label %9, !llvm.loop !24

_ZN17GrowableArrayViewIP14UnstableIfTrapE9delete_atEi.exit: ; preds = %28, %3, %24, %21, %17
  %.0 = phi i1 [ false, %17 ], [ true, %21 ], [ true, %24 ], [ true, %3 ], [ true, %28 ]
  ret i1 %.0
}